target datalayout = "e-m:e-p270:32:32-p271:32:32-p272:64:64-i64:64-i128:128-f80:128-n8:16:32:64-S128"
target triple = "x86_64-pc-linux-gnu"

%struct.mspack_system = type { ptr, ptr, ptr, ptr, ptr, ptr, ptr, ptr, ptr, ptr, ptr }
%struct.lzxd_stream = type { ptr, ptr, ptr, i64, i64, ptr, i32, i32, i32, i32, i32, i32, i32, i32, i32, i32, i32, i32, i32, i8, i8, i8, i8, i8, i32, ptr, ptr, ptr, ptr, ptr, i32, i32, i32, [84 x i8], [2640 x i8], [314 x i8], [72 x i8], [104 x i16], [9248 x i16], [4596 x i16], [144 x i16], i8, [32768 x i8] }

; Function Attrs: nounwind uwtable
define internal i32 @read_input(ptr noundef %0) #0 {
  %2 = alloca i32, align 4
  %3 = alloca ptr, align 8
  %4 = alloca i32, align 4
  store ptr %0, ptr %3, align 8
  %5 = load ptr, ptr %3, align 8
  %6 = getelementptr inbounds %struct.lzxd_stream, ptr %5, i32 0, i32 0
  %7 = load ptr, ptr %6, align 8
  %8 = getelementptr inbounds %struct.mspack_system, ptr %7, i32 0, i32 2
  %9 = load ptr, ptr %8, align 8
  %10 = load ptr, ptr %3, align 8
  %11 = getelementptr inbounds %struct.lzxd_stream, ptr %10, i32 0, i32 1
  %12 = load ptr, ptr %11, align 8
  %13 = load ptr, ptr %3, align 8
  %14 = getelementptr inbounds %struct.lzxd_stream, ptr %13, i32 0, i32 25
  %15 = load ptr, ptr %14, align 8
  %16 = getelementptr inbounds i8, ptr %15, i64 0
  %17 = load ptr, ptr %3, align 8
  %18 = getelementptr inbounds %struct.lzxd_stream, ptr %17, i32 0, i32 32
  %19 = load i32, ptr %18, align 8
  %20 = call i32 %9(ptr noundef %12, ptr noundef %16, i32 noundef %19)
  store i32 %20, ptr %4, align 4
  %21 = load i32, ptr %4, align 4
  %22 = icmp slt i32 %21, 0
  br i1 %22, label %23, label %26

23:                                               ; preds = %1
  %24 = load ptr, ptr %3, align 8
  %25 = getelementptr inbounds %struct.lzxd_stream, ptr %24, i32 0, i32 24
  store i32 3, ptr %25, align 4
  store i32 3, ptr %2, align 4
  br label %64

26:                                               ; preds = %1
  %27 = load i32, ptr %4, align 4
  %28 = icmp eq i32 %27, 0
  br i1 %28, label %29, label %49

29:                                               ; preds = %26
  %30 = load ptr, ptr %3, align 8
  %31 = getelementptr inbounds %struct.lzxd_stream, ptr %30, i32 0, i32 22
  %32 = load i8, ptr %31, align 1
  %33 = icmp ne i8 %32, 0
  br i1 %33, label %34, label %37

34:                                               ; preds = %29
  %35 = load ptr, ptr %3, align 8
  %36 = getelementptr inbounds %struct.lzxd_stream, ptr %35, i32 0, i32 24
  store i32 3, ptr %36, align 4
  store i32 3, ptr %2, align 4
  br label %64

37:                                               ; preds = %29
  store i32 2, ptr %4, align 4
  %38 = load ptr, ptr %3, align 8
  %39 = getelementptr inbounds %struct.lzxd_stream, ptr %38, i32 0, i32 25
  %40 = load ptr, ptr %39, align 8
  %41 = getelementptr inbounds i8, ptr %40, i64 1
  store i8 0, ptr %41, align 1
  %42 = load ptr, ptr %3, align 8
  %43 = getelementptr inbounds %struct.lzxd_stream, ptr %42, i32 0, i32 25
  %44 = load ptr, ptr %43, align 8
  %45 = getelementptr inbounds i8, ptr %44, i64 0
  store i8 0, ptr %45, align 1
  %46 = load ptr, ptr %3, align 8
  %47 = getelementptr inbounds %struct.lzxd_stream, ptr %46, i32 0, i32 22
  store i8 1, ptr %47, align 1
  br label %48

48:                                               ; preds = %37
  br label %49

49:                                               ; preds = %48, %26
  %50 = load ptr, ptr %3, align 8
  %51 = getelementptr inbounds %struct.lzxd_stream, ptr %50, i32 0, i32 25
  %52 = load ptr, ptr %51, align 8
  %53 = getelementptr inbounds i8, ptr %52, i64 0
  %54 = load ptr, ptr %3, align 8
  %55 = getelementptr inbounds %struct.lzxd_stream, ptr %54, i32 0, i32 26
  store ptr %53, ptr %55, align 8
  %56 = load ptr, ptr %3, align 8
  %57 = getelementptr inbounds %struct.lzxd_stream, ptr %56, i32 0, i32 25
  %58 = load ptr, ptr %57, align 8
  %59 = load i32, ptr %4, align 4
  %60 = sext i32 %59 to i64
  %61 = getelementptr inbounds i8, ptr %58, i64 %60
  %62 = load ptr, ptr %3, align 8
  %63 = getelementptr inbounds %struct.lzxd_stream, ptr %62, i32 0, i32 27
  store ptr %61, ptr %63, align 8
  store i32 0, ptr %2, align 4
  br label %64

64:                                               ; preds = %49, %34, %23
  %65 = load i32, ptr %2, align 4
  ret i32 %65
}